target datalayout = "e-m:e-p270:32:32-p271:32:32-p272:64:64-i64:64-i128:128-f80:128-n8:16:32:64-S128"
target triple = "x86_64-pc-linux-gnu"

%struct.archive_write = type { %struct.archive, i32, i64, i64, ptr, i64, ptr, ptr, ptr, ptr, ptr, i32, i32, ptr, ptr, ptr, ptr, ptr, ptr, ptr, ptr, ptr, ptr, ptr, ptr, ptr, ptr }
%struct.archive = type { i32, i32, ptr, i32, ptr, i32, i32, ptr, %struct.archive_string, ptr, i32, i32, ptr, ptr, i64, i64, i64, i8, i64 }
%struct.archive_string = type { ptr, i64, i64 }
%struct.iso9660 = type { i64, i32, ptr, ptr, %struct.archive_string, i64, i32, %struct.archive_string, %struct.archive_string, ptr, ptr, %struct.anon, %struct.anon.0, %struct.archive_rb_tree, %struct.vdd, %struct.vdd, i32, i32, i32, %struct.archive_string, %struct.archive_string, %struct.archive_string, %struct.archive_string, %struct.archive_string, %struct.archive_string, %struct.archive_string, i32, %struct.anon.1, ptr, i32, [65536 x i8], i64, i32, i64, i64, i64, %struct.anon.2, %struct.iso_option }
%struct.anon = type { ptr, ptr }
%struct.anon.0 = type { ptr, ptr }
%struct.archive_rb_tree = type { ptr, ptr }
%struct.vdd = type { ptr, i32, ptr, i32, i32, i32, i32, i32, i32 }
%struct.anon.1 = type { i8, [64 x i8], i32, ptr, i64, i32, i32, i64, i64, %struct.z_stream_s, i32, i64, i32 }
%struct.z_stream_s = type { ptr, i32, i64, ptr, i32, i64, ptr, ptr, ptr, ptr, ptr, i32, i64, i64 }
%struct.anon.2 = type { %struct.archive_string, ptr, %struct.archive_string, ptr, i8, %struct.archive_string, i8, i8, i16, i16 }
%struct.iso_option = type { i32 }

@.str.58 = private unnamed_addr constant [30 x i8] c"Can't write to temporary file\00", align 1

; Function Attrs: nounwind uwtable
define internal i32 @write_to_temp(ptr noundef %0, ptr noundef %1, i64 noundef %2) #0 {
  %4 = alloca i32, align 4
  %5 = alloca ptr, align 8
  %6 = alloca ptr, align 8
  %7 = alloca i64, align 8
  %8 = alloca ptr, align 8
  %9 = alloca i64, align 8
  %10 = alloca ptr, align 8
  %11 = alloca i32, align 4
  store ptr %0, ptr %5, align 8, !tbaa !9
  store ptr %1, ptr %6, align 8, !tbaa !153
  store i64 %2, ptr %7, align 8, !tbaa !154
  call void @llvm.lifetime.start.p0(i64 8, ptr %8) #13
  %12 = load ptr, ptr %5, align 8, !tbaa !9
  %13 = getelementptr inbounds nuw %struct.archive_write, ptr %12, i32 0, i32 15
  %14 = load ptr, ptr %13, align 8, !tbaa !120
  store ptr %14, ptr %8, align 8, !tbaa !22
  call void @llvm.lifetime.start.p0(i64 8, ptr %9) #13
  call void @llvm.lifetime.start.p0(i64 8, ptr %10) #13
  %15 = load ptr, ptr %6, align 8, !tbaa !153
  store ptr %15, ptr %10, align 8, !tbaa !133
  br label %16

16:                                               ; preds = %33, %3
  %17 = load i64, ptr %7, align 8, !tbaa !154
  %18 = icmp ne i64 %17, 0
  br i1 %18, label %19, label %40

19:                                               ; preds = %16
  %20 = load ptr, ptr %8, align 8, !tbaa !22
  %21 = getelementptr inbounds nuw %struct.iso9660, ptr %20, i32 0, i32 1
  %22 = load i32, ptr %21, align 8, !tbaa !42
  %23 = load ptr, ptr %10, align 8, !tbaa !133
  %24 = load i64, ptr %7, align 8, !tbaa !154
  %25 = call i64 @write(i32 noundef %22, ptr noundef %23, i64 noundef %24)
  store i64 %25, ptr %9, align 8, !tbaa !154
  %26 = load i64, ptr %9, align 8, !tbaa !154
  %27 = icmp slt i64 %26, 0
  br i1 %27, label %28, label %33

28:                                               ; preds = %19
  %29 = load ptr, ptr %5, align 8, !tbaa !9
  %30 = getelementptr inbounds nuw %struct.archive_write, ptr %29, i32 0, i32 0
  %31 = call ptr @__errno_location() #16
  %32 = load i32, ptr %31, align 4, !tbaa !11
  call void (ptr, i32, ptr, ...) @archive_set_error(ptr noundef %30, i32 noundef %32, ptr noundef @.str.58)
  store i32 -30, ptr %4, align 4
  store i32 1, ptr %11, align 4
  br label %41

33:                                               ; preds = %19
  %34 = load i64, ptr %9, align 8, !tbaa !154
  %35 = load i64, ptr %7, align 8, !tbaa !154
  %36 = sub i64 %35, %34
  store i64 %36, ptr %7, align 8, !tbaa !154
  %37 = load i64, ptr %9, align 8, !tbaa !154
  %38 = load ptr, ptr %10, align 8, !tbaa !133
  %39 = getelementptr inbounds i8, ptr %38, i64 %37
  store ptr %39, ptr %10, align 8, !tbaa !133
  br label %16, !llvm.loop !247

40:                                               ; preds = %16
  store i32 0, ptr %4, align 4
  store i32 1, ptr %11, align 4
  br label %41

41:                                               ; preds = %40, %28
  call void @llvm.lifetime.end.p0(i64 8, ptr %10) #13
  call void @llvm.lifetime.end.p0(i64 8, ptr %9) #13
  call void @llvm.lifetime.end.p0(i64 8, ptr %8) #13
  %42 = load i32, ptr %4, align 4
  ret i32 %42
}

; Function Attrs: nounwind uwtable
define internal i32 @wb_write_out(ptr noundef %0) #0 {
  %2 = alloca ptr, align 8
  %3 = alloca ptr, align 8
  %4 = alloca i64, align 8
  %5 = alloca i64, align 8
  %6 = alloca i32, align 4
  store ptr %0, ptr %2, align 8, !tbaa !9
  call void @llvm.lifetime.start.p0(i64 8, ptr %3) #13
  %7 = load ptr, ptr %2, align 8, !tbaa !9
  %8 = getelementptr inbounds nuw %struct.archive_write, ptr %7, i32 0, i32 15
  %9 = load ptr, ptr %8, align 8, !tbaa !120
  store ptr %9, ptr %3, align 8, !tbaa !22
  call void @llvm.lifetime.start.p0(i64 8, ptr %4) #13
  call void @llvm.lifetime.start.p0(i64 8, ptr %5) #13
  call void @llvm.lifetime.start.p0(i64 4, ptr %6) #13
  %10 = load ptr, ptr %3, align 8, !tbaa !22
  %11 = getelementptr inbounds nuw %struct.iso9660, ptr %10, i32 0, i32 31
  %12 = load i64, ptr %11, align 8, !tbaa !53
  %13 = sub i64 65536, %12
  store i64 %13, ptr %4, align 8, !tbaa !154
  %14 = load i64, ptr %4, align 8, !tbaa !154
  %15 = urem i64 %14, 2048
  store i64 %15, ptr %5, align 8, !tbaa !154
  %16 = load ptr, ptr %3, align 8, !tbaa !22
  %17 = getelementptr inbounds nuw %struct.iso9660, ptr %16, i32 0, i32 32
  %18 = load i32, ptr %17, align 8, !tbaa !54
  %19 = icmp eq i32 %18, 0
  br i1 %19, label %20, label %29

20:                                               ; preds = %1
  %21 = load ptr, ptr %2, align 8, !tbaa !9
  %22 = load ptr, ptr %3, align 8, !tbaa !22
  %23 = getelementptr inbounds nuw %struct.iso9660, ptr %22, i32 0, i32 30
  %24 = getelementptr inbounds [65536 x i8], ptr %23, i64 0, i64 0
  %25 = load i64, ptr %4, align 8, !tbaa !154
  %26 = load i64, ptr %5, align 8, !tbaa !154
  %27 = sub i64 %25, %26
  %28 = call i32 @__archive_write_output(ptr noundef %21, ptr noundef %24, i64 noundef %27)
  store i32 %28, ptr %6, align 4, !tbaa !11
  br label %38

29:                                               ; preds = %1
  %30 = load ptr, ptr %2, align 8, !tbaa !9
  %31 = load ptr, ptr %3, align 8, !tbaa !22
  %32 = getelementptr inbounds nuw %struct.iso9660, ptr %31, i32 0, i32 30
  %33 = getelementptr inbounds [65536 x i8], ptr %32, i64 0, i64 0
  %34 = load i64, ptr %4, align 8, !tbaa !154
  %35 = load i64, ptr %5, align 8, !tbaa !154
  %36 = sub i64 %34, %35
  %37 = call i32 @write_to_temp(ptr noundef %30, ptr noundef %33, i64 noundef %36)
  store i32 %37, ptr %6, align 4, !tbaa !11
  br label %38

38:                                               ; preds = %29, %20
  %39 = load i64, ptr %4, align 8, !tbaa !154
  %40 = load i64, ptr %5, align 8, !tbaa !154
  %41 = sub i64 %39, %40
  %42 = load ptr, ptr %3, align 8, !tbaa !22
  %43 = getelementptr inbounds nuw %struct.iso9660, ptr %42, i32 0, i32 33
  %44 = load i64, ptr %43, align 8, !tbaa !55
  %45 = add i64 %44, %41
  store i64 %45, ptr %43, align 8, !tbaa !55
  %46 = load ptr, ptr %3, align 8, !tbaa !22
  %47 = getelementptr inbounds nuw %struct.iso9660, ptr %46, i32 0, i32 33
  %48 = load i64, ptr %47, align 8, !tbaa !55
  %49 = load ptr, ptr %3, align 8, !tbaa !22
  %50 = getelementptr inbounds nuw %struct.iso9660, ptr %49, i32 0, i32 34
  %51 = load i64, ptr %50, align 8, !tbaa !56
  %52 = icmp sgt i64 %48, %51
  br i1 %52, label %53, label %59

53:                                               ; preds = %38
  %54 = load ptr, ptr %3, align 8, !tbaa !22
  %55 = getelementptr inbounds nuw %struct.iso9660, ptr %54, i32 0, i32 33
  %56 = load i64, ptr %55, align 8, !tbaa !55
  %57 = load ptr, ptr %3, align 8, !tbaa !22
  %58 = getelementptr inbounds nuw %struct.iso9660, ptr %57, i32 0, i32 34
  store i64 %56, ptr %58, align 8, !tbaa !56
  br label %59

59:                                               ; preds = %53, %38
  %60 = load ptr, ptr %3, align 8, !tbaa !22
  %61 = getelementptr inbounds nuw %struct.iso9660, ptr %60, i32 0, i32 31
  store i64 65536, ptr %61, align 8, !tbaa !53
  %62 = load i64, ptr %5, align 8, !tbaa !154
  %63 = icmp ne i64 %62, 0
  br i1 %63, label %64, label %82

64:                                               ; preds = %59
  %65 = load i64, ptr %5, align 8, !tbaa !154
  %66 = load ptr, ptr %3, align 8, !tbaa !22
  %67 = getelementptr inbounds nuw %struct.iso9660, ptr %66, i32 0, i32 31
  %68 = load i64, ptr %67, align 8, !tbaa !53
  %69 = sub i64 %68, %65
  store i64 %69, ptr %67, align 8, !tbaa !53
  %70 = load ptr, ptr %3, align 8, !tbaa !22
  %71 = getelementptr inbounds nuw %struct.iso9660, ptr %70, i32 0, i32 30
  %72 = getelementptr inbounds [65536 x i8], ptr %71, i64 0, i64 0
  %73 = load ptr, ptr %3, align 8, !tbaa !22
  %74 = getelementptr inbounds nuw %struct.iso9660, ptr %73, i32 0, i32 30
  %75 = getelementptr inbounds [65536 x i8], ptr %74, i64 0, i64 0
  %76 = load i64, ptr %4, align 8, !tbaa !154
  %77 = getelementptr inbounds nuw i8, ptr %75, i64 %76
  %78 = load i64, ptr %5, align 8, !tbaa !154
  %79 = sub i64 0, %78
  %80 = getelementptr inbounds i8, ptr %77, i64 %79
  %81 = load i64, ptr %5, align 8, !tbaa !154
  call void @llvm.memmove.p0.p0.i64(ptr align 4 %72, ptr align 1 %80, i64 %81, i1 false)
  br label %82

82:                                               ; preds = %64, %59
  %83 = load i32, ptr %6, align 4, !tbaa !11
  call void @llvm.lifetime.end.p0(i64 4, ptr %6) #13
  call void @llvm.lifetime.end.p0(i64 8, ptr %5) #13
  call void @llvm.lifetime.end.p0(i64 8, ptr %4) #13
  call void @llvm.lifetime.end.p0(i64 8, ptr %3) #13
  ret i32 %83
}