; Function Attrs: nounwind uwtable
define internal fastcc i32 @wb_write_out(ptr noundef %0) unnamed_addr #0 {
  %2 = getelementptr inbounds nuw i8, ptr %0, i64 248
  %3 = load ptr, ptr %2, align 8, !tbaa !69
  %4 = getelementptr inbounds nuw i8, ptr %3, i64 66272
  %5 = load i64, ptr %4, align 8, !tbaa !50
  %6 = sub i64 65536, %5
  %7 = and i64 %6, 2047
  %8 = getelementptr inbounds nuw i8, ptr %3, i64 66280
  %9 = load i32, ptr %8, align 8, !tbaa !51
  %10 = icmp eq i32 %9, 0
  br i1 %10, label %11, label %15

11:                                               ; preds = %1
  %12 = getelementptr inbounds nuw i8, ptr %3, i64 732
  %13 = and i64 %6, -2048
  %14 = tail call i32 @__archive_write_output(ptr noundef nonnull %0, ptr noundef nonnull %12, i64 noundef %13) #23
  br label %write_to_temp.exit

15:                                               ; preds = %1
  %16 = and i64 %6, -2048
  %.not15.i = icmp eq i64 %16, 0
  br i1 %.not15.i, label %write_to_temp.exit, label %.lr.ph.i

.lr.ph.i:                                         ; preds = %15
  %17 = getelementptr inbounds nuw i8, ptr %3, i64 732
  %18 = getelementptr inbounds nuw i8, ptr %3, i64 8
  br label %19

19:                                               ; preds = %26, %.lr.ph.i
  %.017.i = phi ptr [ %17, %.lr.ph.i ], [ %28, %26 ]
  %.01316.i = phi i64 [ %16, %.lr.ph.i ], [ %27, %26 ]
  %20 = load i32, ptr %18, align 8, !tbaa !35
  %21 = tail call i64 @write(i32 noundef %20, ptr noundef %.017.i, i64 noundef %.01316.i) #23
  %22 = icmp slt i64 %21, 0
  br i1 %22, label %23, label %26

23:                                               ; preds = %19
  %24 = tail call ptr @__errno_location() #26
  %25 = load i32, ptr %24, align 4, !tbaa !101
  tail call void (ptr, i32, ptr, ...) @archive_set_error(ptr noundef %0, i32 noundef %25, ptr noundef nonnull @.str.58) #23
  br label %write_to_temp.exit

26:                                               ; preds = %19
  %27 = sub i64 %.01316.i, %21
  %28 = getelementptr inbounds nuw i8, ptr %.017.i, i64 %21
  %.not.i = icmp eq i64 %27, 0
  br i1 %.not.i, label %write_to_temp.exit, label %19, !llvm.loop !216

write_to_temp.exit:                               ; preds = %26, %23, %15, %11
  %.pre-phi = phi i64 [ %16, %23 ], [ 0, %15 ], [ %13, %11 ], [ %16, %26 ]
  %.0 = phi i32 [ -30, %23 ], [ 0, %15 ], [ %14, %11 ], [ 0, %26 ]
  %29 = getelementptr inbounds nuw i8, ptr %3, i64 66288
  %30 = load i64, ptr %29, align 8, !tbaa !108
  %31 = add i64 %30, %.pre-phi
  store i64 %31, ptr %29, align 8, !tbaa !108
  %32 = getelementptr inbounds nuw i8, ptr %3, i64 66296
  %33 = load i64, ptr %32, align 8, !tbaa !254
  %34 = icmp sgt i64 %31, %33
  br i1 %34, label %35, label %36

35:                                               ; preds = %write_to_temp.exit
  store i64 %31, ptr %32, align 8, !tbaa !254
  br label %36

36:                                               ; preds = %35, %write_to_temp.exit
  store i64 65536, ptr %4, align 8, !tbaa !50
  %.not = icmp eq i64 %7, 0
  br i1 %.not, label %43, label %37

37:                                               ; preds = %36
  %38 = sub nuw nsw i64 65536, %7
  store i64 %38, ptr %4, align 8, !tbaa !50
  %39 = getelementptr inbounds nuw i8, ptr %3, i64 732
  %40 = getelementptr inbounds nuw i8, ptr %39, i64 %6
  %41 = sub nsw i64 0, %7
  %42 = getelementptr inbounds i8, ptr %40, i64 %41
  tail call void @llvm.memmove.p0.p0.i64(ptr nonnull align 4 %39, ptr nonnull align 1 %42, i64 %7, i1 false)
  br label %43

43:                                               ; preds = %37, %36
  ret i32 %.0
}